; ModuleID = '30/189.c'
source_filename = "30/189.c"
target datalayout = "e-m:e-p270:32:32-p271:32:32-p272:64:64-i64:64-f80:128-n8:16:32:64-S128"
target triple = "x86_64-pc-linux-gnu"

@.str = private unnamed_addr constant [3 x i8] c"%d\00", align 1
@.str.1 = private unnamed_addr constant [4 x i8] c"%d\0A\00", align 1

; Function Attrs: noinline nounwind uwtable
define dso_local void @main() #0 {
  %1 = alloca i32, align 4
  %2 = alloca i32, align 4
  %3 = alloca i32, align 4
  %4 = alloca i32, align 4
  %5 = alloca i32, align 4
  %6 = call i32 (i8*, ...) @__isoc99_scanf(i8* getelementptr inbounds ([3 x i8], [3 x i8]* @.str, i64 0, i64 0), i32* %1)
  store i32 0, i32* %2, align 4
  store i32 1, i32* %3, align 4
  br label %7

7:                                                ; preds = %32, %0
  %8 = load i32, i32* %3, align 4
  %9 = load i32, i32* %1, align 4
  %10 = icmp sle i32 %8, %9
  br i1 %10, label %11, label %35

11:                                               ; preds = %7
  %12 = load i32, i32* %3, align 4
  %13 = sdiv i32 %12, 10
  store i32 %13, i32* %4, align 4
  %14 = load i32, i32* %3, align 4
  %15 = srem i32 %14, 10
  store i32 %15, i32* %5, align 4
  %16 = load i32, i32* %3, align 4
  %17 = srem i32 %16, 7
  %18 = icmp eq i32 %17, 0
  br i1 %18, label %25, label %19

19:                                               ; preds = %11
  %20 = load i32, i32* %4, align 4
  %21 = icmp eq i32 %20, 7
  br i1 %21, label %25, label %22

22:                                               ; preds = %19
  %23 = load i32, i32* %5, align 4
  %24 = icmp eq i32 %23, 7
  br i1 %24, label %25, label %26

25:                                               ; preds = %22, %19, %11
  br label %32

26:                                               ; preds = %22
  %27 = load i32, i32* %2, align 4
  %28 = load i32, i32* %3, align 4
  %29 = load i32, i32* %3, align 4
  %30 = mul nsw i32 %28, %29
  %31 = add nsw i32 %27, %30
  store i32 %31, i32* %2, align 4
  br label %32

32:                                               ; preds = %26, %25
  %33 = load i32, i32* %3, align 4
  %34 = add nsw i32 %33, 1
  store i32 %34, i32* %3, align 4
  br label %7

35:                                               ; preds = %7
  %36 = load i32, i32* %2, align 4
  %37 = call i32 (i8*, ...) @printf(i8* getelementptr inbounds ([4 x i8], [4 x i8]* @.str.1, i64 0, i64 0), i32 %36)
  ret void
}

declare dso_local i32 @__isoc99_scanf(i8*, ...) #1

declare dso_local i32 @printf(i8*, ...) #1


!llvm.module.flags = !{!0}
!llvm.ident = !{!1}

!0 = !{i32 1, !"wchar_size", i32 4}
!1 = !{!"clang version 10.0.0-4ubuntu1 "}
